; Function Attrs: nounwind uwtable
define dso_local void @logicalrep_write_insert(ptr noundef %0, i32 noundef %1, ptr noundef readonly captures(none) %2, ptr noundef %3, i1 noundef zeroext %4, ptr noundef %5, i32 noundef %6) local_unnamed_addr #0 {
  tail call void @enlargeStringInfo(ptr noundef %0, i32 noundef 1) #8
  tail call void @llvm.experimental.noalias.scope.decl(metadata !109)
  %8 = load ptr, ptr %0, align 8, !alias.scope !109
  %9 = getelementptr inbounds nuw i8, ptr %0, i64 8
  %10 = load i32, ptr %9, align 8, !alias.scope !109
  %11 = sext i32 %10 to i64
  %12 = getelementptr inbounds i8, ptr %8, i64 %11
  store i8 73, ptr %12, align 1, !noalias !109
  %13 = add i32 %10, 1
  store i32 %13, ptr %9, align 8, !alias.scope !109
  %.not = icmp eq i32 %1, 0
  br i1 %.not, label %21, label %14

14:                                               ; preds = %7
  tail call void @enlargeStringInfo(ptr noundef nonnull %0, i32 noundef 4) #8
  tail call void @llvm.experimental.noalias.scope.decl(metadata !112)
  %15 = tail call i32 @llvm.bswap.i32(i32 %1)
  %16 = load ptr, ptr %0, align 8, !alias.scope !112
  %17 = load i32, ptr %9, align 8, !alias.scope !112
  %18 = sext i32 %17 to i64
  %19 = getelementptr inbounds i8, ptr %16, i64 %18
  store i32 %15, ptr %19, align 1, !noalias !112
  %20 = add i32 %17, 4
  store i32 %20, ptr %9, align 8, !alias.scope !112
  br label %21

21:                                               ; preds = %14, %7
  %22 = getelementptr inbounds nuw i8, ptr %2, i64 72
  %23 = load i32, ptr %22, align 8
  tail call void @enlargeStringInfo(ptr noundef nonnull %0, i32 noundef 4) #8
  tail call void @llvm.experimental.noalias.scope.decl(metadata !115)
  %24 = tail call i32 @llvm.bswap.i32(i32 %23)
  %25 = load ptr, ptr %0, align 8, !alias.scope !115
  %26 = load i32, ptr %9, align 8, !alias.scope !115
  %27 = sext i32 %26 to i64
  %28 = getelementptr inbounds i8, ptr %25, i64 %27
  store i32 %24, ptr %28, align 1, !noalias !115
  %29 = add i32 %26, 4
  store i32 %29, ptr %9, align 8, !alias.scope !115
  tail call void @enlargeStringInfo(ptr noundef nonnull %0, i32 noundef 1) #8
  tail call void @llvm.experimental.noalias.scope.decl(metadata !118)
  %30 = load ptr, ptr %0, align 8, !alias.scope !118
  %31 = load i32, ptr %9, align 8, !alias.scope !118
  %32 = sext i32 %31 to i64
  %33 = getelementptr inbounds i8, ptr %30, i64 %32
  store i8 78, ptr %33, align 1, !noalias !118
  %34 = add i32 %31, 1
  store i32 %34, ptr %9, align 8, !alias.scope !118
  %35 = getelementptr i8, ptr %2, i64 64
  %.val = load ptr, ptr %35, align 8
  tail call fastcc void @logicalrep_write_tuple(ptr noundef nonnull %0, ptr %.val, ptr noundef %3, i1 noundef zeroext %4, ptr noundef %5, i32 noundef %6)
  ret void
}